target datalayout = "e-m:e-p270:32:32-p271:32:32-p272:64:64-i64:64-i128:128-f80:128-n8:16:32:64-S128"
target triple = "x86_64-pc-linux-gnu"

%"class.std::shared_ptr" = type { %"class.std::__shared_ptr" }
%"class.std::__shared_ptr" = type { ptr, %"class.std::__shared_count" }
%"class.std::__shared_count" = type { ptr }
%"class.open_spiel::twenty_forty_eight::TwentyFortyEightState" = type { %"class.open_spiel::State.base", ptr, i32, %"class.std::vector.9", i8, i32, i32, i32 }
%"class.open_spiel::State.base" = type <{ ptr, %"class.std::shared_ptr", i32, i32, %"class.std::vector", i32 }>
%"class.std::vector" = type { %"struct.std::_Vector_base" }
%"struct.std::_Vector_base" = type { %"struct.std::_Vector_base<open_spiel::State::PlayerAction, std::allocator<open_spiel::State::PlayerAction>>::_Vector_impl" }
%"struct.std::_Vector_base<open_spiel::State::PlayerAction, std::allocator<open_spiel::State::PlayerAction>>::_Vector_impl" = type { %"struct.std::_Vector_base<open_spiel::State::PlayerAction, std::allocator<open_spiel::State::PlayerAction>>::_Vector_impl_data" }
%"struct.std::_Vector_base<open_spiel::State::PlayerAction, std::allocator<open_spiel::State::PlayerAction>>::_Vector_impl_data" = type { ptr, ptr, ptr }
%"class.std::vector.9" = type { %"struct.std::_Vector_base.10" }
%"struct.std::_Vector_base.10" = type { %"struct.std::_Vector_base<open_spiel::twenty_forty_eight::Tile, std::allocator<open_spiel::twenty_forty_eight::Tile>>::_Vector_impl" }
%"struct.std::_Vector_base<open_spiel::twenty_forty_eight::Tile, std::allocator<open_spiel::twenty_forty_eight::Tile>>::_Vector_impl" = type { %"struct.std::_Vector_base<open_spiel::twenty_forty_eight::Tile, std::allocator<open_spiel::twenty_forty_eight::Tile>>::_Vector_impl_data" }
%"struct.std::_Vector_base<open_spiel::twenty_forty_eight::Tile, std::allocator<open_spiel::twenty_forty_eight::Tile>>::_Vector_impl_data" = type { ptr, ptr, ptr }
%"struct.open_spiel::twenty_forty_eight::Tile" = type <{ i32, i8, [3 x i8] }>

; Function Attrs: mustprogress nounwind uwtable
define linkonce_odr noundef nonnull align 4 dereferenceable(5) ptr @_ZNKSt6vectorIN10open_spiel18twenty_forty_eight4TileESaIS2_EEixEm(ptr noundef nonnull align 8 dereferenceable(24) %0, i64 noundef %1) #5 comdat align 2 {
  %3 = alloca ptr, align 8
  %4 = alloca i64, align 8
  store ptr %0, ptr %3, align 8
  store i64 %1, ptr %4, align 8
  %5 = load ptr, ptr %3, align 8
  %6 = getelementptr inbounds nuw %"struct.std::_Vector_base.10", ptr %5, i32 0, i32 0
  %7 = getelementptr inbounds nuw %"struct.std::_Vector_base<open_spiel::twenty_forty_eight::Tile, std::allocator<open_spiel::twenty_forty_eight::Tile>>::_Vector_impl_data", ptr %6, i32 0, i32 0
  %8 = load ptr, ptr %7, align 8
  %9 = load i64, ptr %4, align 8
  %10 = getelementptr inbounds %"struct.open_spiel::twenty_forty_eight::Tile", ptr %8, i64 %9
  ret ptr %10
}

; Function Attrs: mustprogress nounwind uwtable
define linkonce_odr i64 @_ZNK10open_spiel18twenty_forty_eight21TwentyFortyEightState7BoardAtEii(ptr noundef nonnull align 8 dereferenceable(120) %0, i32 noundef %1, i32 noundef %2) #5 comdat align 2 {
  %4 = alloca %"struct.open_spiel::twenty_forty_eight::Tile", align 4
  %5 = alloca ptr, align 8
  %6 = alloca i32, align 4
  %7 = alloca i32, align 4
  store ptr %0, ptr %5, align 8
  store i32 %1, ptr %6, align 4
  store i32 %2, ptr %7, align 4
  %8 = load ptr, ptr %5, align 8
  %9 = getelementptr inbounds nuw %"class.open_spiel::twenty_forty_eight::TwentyFortyEightState", ptr %8, i32 0, i32 3
  %10 = load i32, ptr %6, align 4
  %11 = mul nsw i32 %10, 4
  %12 = load i32, ptr %7, align 4
  %13 = add nsw i32 %11, %12
  %14 = sext i32 %13 to i64
  %15 = call noundef nonnull align 4 dereferenceable(5) ptr @_ZNKSt6vectorIN10open_spiel18twenty_forty_eight4TileESaIS2_EEixEm(ptr noundef nonnull align 8 dereferenceable(24) %9, i64 noundef %14) #3
  call void @llvm.memcpy.p0.p0.i64(ptr align 4 %4, ptr align 4 %15, i64 8, i1 false)
  %16 = load i64, ptr %4, align 4
  ret i64 %16
}

; Function Attrs: mustprogress nounwind uwtable
define internal noundef zeroext i1 @_ZN10open_spiel18twenty_forty_eight12_GLOBAL__N_18InBoundsEii(i32 noundef %0, i32 noundef %1) #5 {
  %3 = alloca i32, align 4
  %4 = alloca i32, align 4
  store i32 %0, ptr %3, align 4
  store i32 %1, ptr %4, align 4
  %5 = load i32, ptr %3, align 4
  %6 = icmp sge i32 %5, 0
  br i1 %6, label %7, label %16

7:                                                ; preds = %2
  %8 = load i32, ptr %3, align 4
  %9 = icmp slt i32 %8, 4
  br i1 %9, label %10, label %16

10:                                               ; preds = %7
  %11 = load i32, ptr %4, align 4
  %12 = icmp sge i32 %11, 0
  br i1 %12, label %13, label %16

13:                                               ; preds = %10
  %14 = load i32, ptr %4, align 4
  %15 = icmp slt i32 %14, 4
  br label %16

16:                                               ; preds = %13, %10, %7, %2
  %17 = phi i1 [ false, %10 ], [ false, %7 ], [ false, %2 ], [ %15, %13 ]
  ret i1 %17
}

; Function Attrs: mustprogress uwtable
define noundef i32 @_ZNK10open_spiel18twenty_forty_eight21TwentyFortyEightState14GetCellContentEii(ptr noundef nonnull align 8 dereferenceable(120) %0, i32 noundef %1, i32 noundef %2) #4 align 2 {
  %4 = alloca i32, align 4
  %5 = alloca ptr, align 8
  %6 = alloca i32, align 4
  %7 = alloca i32, align 4
  %8 = alloca %"struct.open_spiel::twenty_forty_eight::Tile", align 4
  store ptr %0, ptr %5, align 8
  store i32 %1, ptr %6, align 4
  store i32 %2, ptr %7, align 4
  %9 = load ptr, ptr %5, align 8
  %10 = load i32, ptr %6, align 4
  %11 = load i32, ptr %7, align 4
  %12 = call noundef zeroext i1 @_ZN10open_spiel18twenty_forty_eight12_GLOBAL__N_18InBoundsEii(i32 noundef %10, i32 noundef %11)
  br i1 %12, label %14, label %13

13:                                               ; preds = %3
  store i32 0, ptr %4, align 4
  br label %21

14:                                               ; preds = %3
  %15 = load i32, ptr %6, align 4
  %16 = load i32, ptr %7, align 4
  %17 = call i64 @_ZNK10open_spiel18twenty_forty_eight21TwentyFortyEightState7BoardAtEii(ptr noundef nonnull align 8 dereferenceable(120) %9, i32 noundef %15, i32 noundef %16)
  %18 = trunc i64 %17 to i40
  store i40 %18, ptr %8, align 4
  %19 = getelementptr inbounds nuw %"struct.open_spiel::twenty_forty_eight::Tile", ptr %8, i32 0, i32 0
  %20 = load i32, ptr %19, align 4
  store i32 %20, ptr %4, align 4
  br label %21

21:                                               ; preds = %14, %13
  %22 = load i32, ptr %4, align 4
  ret i32 %22
}