; Function Attrs: mustprogress nofree norecurse nosync nounwind willreturn memory(read, inaccessiblemem: none) uwtable
define noundef i32 @_ZNK10open_spiel18twenty_forty_eight21TwentyFortyEightState14GetCellContentEii(ptr noundef nonnull readonly align 8 captures(none) dereferenceable(120) %0, i32 noundef %1, i32 noundef %2) local_unnamed_addr #7 align 2 {
  %or.cond.i = icmp ult i32 %1, 4
  %4 = icmp sgt i32 %2, -1
  %or.cond3.i = and i1 %or.cond.i, %4
  %5 = icmp samesign ult i32 %2, 4
  %spec.select.i = select i1 %or.cond3.i, i1 %5, i1 false
  br i1 %spec.select.i, label %6, label %13

6:                                                ; preds = %3
  %7 = getelementptr inbounds nuw i8, ptr %0, i64 80
  %8 = shl nuw nsw i32 %1, 2
  %9 = or disjoint i32 %8, %2
  %10 = zext nneg i32 %9 to i64
  %11 = load ptr, ptr %7, align 8
  %12 = getelementptr inbounds nuw %"struct.open_spiel::twenty_forty_eight::Tile", ptr %11, i64 %10
  %.sroa.0.0.copyload.i = load i64, ptr %12, align 4
  %.sroa.0.0.extract.trunc = trunc i64 %.sroa.0.0.copyload.i to i32
  br label %13

13:                                               ; preds = %3, %6
  %.0 = phi i32 [ %.sroa.0.0.extract.trunc, %6 ], [ 0, %3 ]
  ret i32 %.0
}